target datalayout = "e-m:e-p270:32:32-p271:32:32-p272:64:64-i64:64-i128:128-f80:128-n8:16:32:64-S128"
target triple = "x86_64-unknown-linux-gnu"

%"class.hermes::JSONEmitter" = type { %"class.llvh::SmallVector", ptr, i8, i32 }
%"class.llvh::SmallVector" = type { %"class.llvh::SmallVectorImpl", %"struct.llvh::SmallVectorStorage" }
%"class.llvh::SmallVectorImpl" = type { %"class.llvh::SmallVectorTemplateBase" }
%"class.llvh::SmallVectorTemplateBase" = type { %"class.llvh::SmallVectorTemplateCommon" }
%"class.llvh::SmallVectorTemplateCommon" = type { %"class.llvh::SmallVectorBase" }
%"class.llvh::SmallVectorBase" = type { ptr, i32, i32 }
%"struct.llvh::SmallVectorStorage" = type { [8 x %"struct.llvh::AlignedCharArrayUnion"] }
%"struct.llvh::AlignedCharArrayUnion" = type { %"struct.llvh::AlignedCharArray" }
%"struct.llvh::AlignedCharArray" = type { [5 x i8] }
%"class.hermes::(anonymous namespace)::ESTreeJSONDumper" = type { ptr, ptr, i32, i32, i32, [4 x i8], %"class.llvh::StringMap", ptr }
%"class.llvh::StringMap" = type <{ %"class.llvh::StringMapImpl", %"class.llvh::MallocAllocator", [7 x i8] }>
%"class.llvh::StringMapImpl" = type { ptr, i32, i32, i32, i32 }
%"class.llvh::MallocAllocator" = type { i8 }
%"struct.hermes::JSONEmitter::State" = type { i8, i8, i8, i8, i8 }

; Function Attrs: mustprogress nounwind uwtable
define linkonce_odr hidden void @_ZN4llvh15SmallVectorBaseC2EPvm(ptr noundef nonnull align 8 dereferenceable(16) %this, ptr noundef %FirstEl, i64 noundef %Capacity) unnamed_addr #0 comdat align 2 {
entry:
  %this.addr = alloca ptr, align 8
  %FirstEl.addr = alloca ptr, align 8
  %Capacity.addr = alloca i64, align 8
  store ptr %this, ptr %this.addr, align 8
  store ptr %FirstEl, ptr %FirstEl.addr, align 8
  store i64 %Capacity, ptr %Capacity.addr, align 8
  %this1 = load ptr, ptr %this.addr, align 8
  %BeginX = getelementptr inbounds %"class.llvh::SmallVectorBase", ptr %this1, i32 0, i32 0
  %0 = load ptr, ptr %FirstEl.addr, align 8
  store ptr %0, ptr %BeginX, align 8
  %Size = getelementptr inbounds %"class.llvh::SmallVectorBase", ptr %this1, i32 0, i32 1
  store i32 0, ptr %Size, align 8
  %Capacity2 = getelementptr inbounds %"class.llvh::SmallVectorBase", ptr %this1, i32 0, i32 2
  %1 = load i64, ptr %Capacity.addr, align 8
  %conv = trunc i64 %1 to i32
  store i32 %conv, ptr %Capacity2, align 4
  ret void
}

; Function Attrs: mustprogress nounwind uwtable
define linkonce_odr hidden noundef ptr @_ZNK4llvh25SmallVectorTemplateCommonIN6hermes11JSONEmitter5StateEvE10getFirstElEv(ptr noundef nonnull align 8 dereferenceable(16) %this) #0 comdat align 2 {
entry:
  %this.addr = alloca ptr, align 8
  store ptr %this, ptr %this.addr, align 8
  %this1 = load ptr, ptr %this.addr, align 8
  %add.ptr = getelementptr inbounds i8, ptr %this1, i64 16
  ret ptr %add.ptr
}

; Function Attrs: mustprogress nounwind uwtable
define linkonce_odr hidden void @_ZN4llvh25SmallVectorTemplateCommonIN6hermes11JSONEmitter5StateEvEC2Em(ptr noundef nonnull align 8 dereferenceable(16) %this, i64 noundef %Size) unnamed_addr #0 comdat align 2 {
entry:
  %this.addr = alloca ptr, align 8
  %Size.addr = alloca i64, align 8
  store ptr %this, ptr %this.addr, align 8
  store i64 %Size, ptr %Size.addr, align 8
  %this1 = load ptr, ptr %this.addr, align 8
  %call = call noundef ptr @_ZNK4llvh25SmallVectorTemplateCommonIN6hermes11JSONEmitter5StateEvE10getFirstElEv(ptr noundef nonnull align 8 dereferenceable(16) %this1)
  %0 = load i64, ptr %Size.addr, align 8
  call void @_ZN4llvh15SmallVectorBaseC2EPvm(ptr noundef nonnull align 8 dereferenceable(16) %this1, ptr noundef %call, i64 noundef %0)
  ret void
}

; Function Attrs: mustprogress nounwind uwtable
define linkonce_odr hidden noundef zeroext i1 @_ZNK4llvh25SmallVectorTemplateCommonIN6hermes11JSONEmitter5StateEvE7isSmallEv(ptr noundef nonnull align 8 dereferenceable(16) %this) #0 comdat align 2 {
entry:
  %this.addr = alloca ptr, align 8
  store ptr %this, ptr %this.addr, align 8
  %this1 = load ptr, ptr %this.addr, align 8
  %BeginX = getelementptr inbounds %"class.llvh::SmallVectorBase", ptr %this1, i32 0, i32 0
  %0 = load ptr, ptr %BeginX, align 8
  %call = call noundef ptr @_ZNK4llvh25SmallVectorTemplateCommonIN6hermes11JSONEmitter5StateEvE10getFirstElEv(ptr noundef nonnull align 8 dereferenceable(16) %this1)
  %cmp = icmp eq ptr %0, %call
  ret i1 %cmp
}

; Function Attrs: mustprogress nounwind uwtable
define linkonce_odr hidden void @_ZN4llvh23SmallVectorTemplateBaseIN6hermes11JSONEmitter5StateELb1EEC2Em(ptr noundef nonnull align 8 dereferenceable(16) %this, i64 noundef %Size) unnamed_addr #0 comdat align 2 {
entry:
  %this.addr = alloca ptr, align 8
  %Size.addr = alloca i64, align 8
  store ptr %this, ptr %this.addr, align 8
  store i64 %Size, ptr %Size.addr, align 8
  %this1 = load ptr, ptr %this.addr, align 8
  %0 = load i64, ptr %Size.addr, align 8
  call void @_ZN4llvh25SmallVectorTemplateCommonIN6hermes11JSONEmitter5StateEvEC2Em(ptr noundef nonnull align 8 dereferenceable(16) %this1, i64 noundef %0)
  ret void
}

; Function Attrs: mustprogress nounwind uwtable
define linkonce_odr hidden void @_ZN4llvh15SmallVectorImplIN6hermes11JSONEmitter5StateEED2Ev(ptr noundef nonnull align 8 dereferenceable(16) %this) unnamed_addr #0 comdat align 2 {
entry:
  %this.addr.i = alloca ptr, align 8
  %this.addr = alloca ptr, align 8
  store ptr %this, ptr %this.addr, align 8
  %this1 = load ptr, ptr %this.addr, align 8
  %call = call noundef zeroext i1 @_ZNK4llvh25SmallVectorTemplateCommonIN6hermes11JSONEmitter5StateEvE7isSmallEv(ptr noundef nonnull align 8 dereferenceable(16) %this1)
  br i1 %call, label %if.end, label %if.then

if.then:                                          ; preds = %entry
  store ptr %this1, ptr %this.addr.i, align 8
  %this1.i = load ptr, ptr %this.addr.i, align 8
  %0 = load ptr, ptr %this1.i, align 8
  call void @free(ptr noundef %0) #7
  br label %if.end

if.end:                                           ; preds = %if.then, %entry
  ret void
}

; Function Attrs: mustprogress nounwind uwtable
define linkonce_odr hidden void @_ZN4llvh23SmallVectorTemplateBaseIN6hermes11JSONEmitter5StateELb1EE13destroy_rangeEPS3_S5_(ptr noundef %0, ptr noundef %1) #0 comdat align 2 {
entry:
  %.addr = alloca ptr, align 8
  %.addr1 = alloca ptr, align 8
  store ptr %0, ptr %.addr, align 8
  store ptr %1, ptr %.addr1, align 8
  ret void
}

; Function Attrs: mustprogress nounwind uwtable
define linkonce_odr hidden noundef i64 @_ZNK4llvh15SmallVectorBase4sizeEv(ptr noundef nonnull align 8 dereferenceable(16) %this) #0 comdat align 2 {
entry:
  %this.addr = alloca ptr, align 8
  store ptr %this, ptr %this.addr, align 8
  %this1 = load ptr, ptr %this.addr, align 8
  %Size = getelementptr inbounds %"class.llvh::SmallVectorBase", ptr %this1, i32 0, i32 1
  %0 = load i32, ptr %Size, align 8
  %conv = zext i32 %0 to i64
  ret i64 %conv
}

; Function Attrs: mustprogress nounwind uwtable
define linkonce_odr hidden void @_ZN4llvh15SmallVectorImplIN6hermes11JSONEmitter5StateEEC2Ej(ptr noundef nonnull align 8 dereferenceable(16) %this, i32 noundef %N) unnamed_addr #0 comdat align 2 {
entry:
  %this.addr = alloca ptr, align 8
  %N.addr = alloca i32, align 4
  store ptr %this, ptr %this.addr, align 8
  store i32 %N, ptr %N.addr, align 4
  %this1 = load ptr, ptr %this.addr, align 8
  %0 = load i32, ptr %N.addr, align 4
  %conv = zext i32 %0 to i64
  call void @_ZN4llvh23SmallVectorTemplateBaseIN6hermes11JSONEmitter5StateELb1EEC2Em(ptr noundef nonnull align 8 dereferenceable(16) %this1, i64 noundef %conv)
  ret void
}

; Function Attrs: mustprogress nounwind uwtable
define linkonce_odr hidden void @_ZN4llvh11SmallVectorIN6hermes11JSONEmitter5StateELj8EED2Ev(ptr noundef nonnull align 8 dereferenceable(56) %this) unnamed_addr #0 comdat align 2 {
entry:
  %this.addr.i.i = alloca ptr, align 8
  %this.addr.i3 = alloca ptr, align 8
  %this.addr.i = alloca ptr, align 8
  %this.addr = alloca ptr, align 8
  store ptr %this, ptr %this.addr, align 8
  %this1 = load ptr, ptr %this.addr, align 8
  store ptr %this1, ptr %this.addr.i, align 8
  %this1.i = load ptr, ptr %this.addr.i, align 8
  %0 = load ptr, ptr %this1.i, align 8
  store ptr %this1, ptr %this.addr.i3, align 8
  %this1.i4 = load ptr, ptr %this.addr.i3, align 8
  store ptr %this1.i4, ptr %this.addr.i.i, align 8
  %this1.i.i = load ptr, ptr %this.addr.i.i, align 8
  %1 = load ptr, ptr %this1.i.i, align 8
  %call2.i = call noundef i64 @_ZNK4llvh15SmallVectorBase4sizeEv(ptr noundef nonnull align 8 dereferenceable(16) %this1.i4)
  %add.ptr.i = getelementptr inbounds %"struct.hermes::JSONEmitter::State", ptr %1, i64 %call2.i
  call void @_ZN4llvh23SmallVectorTemplateBaseIN6hermes11JSONEmitter5StateELb1EE13destroy_rangeEPS3_S5_(ptr noundef %0, ptr noundef %add.ptr.i)
  call void @_ZN4llvh15SmallVectorImplIN6hermes11JSONEmitter5StateEED2Ev(ptr noundef nonnull align 8 dereferenceable(16) %this1) #7
  ret void
}

; Function Attrs: mustprogress nounwind uwtable
define linkonce_odr hidden void @_ZN4llvh11SmallVectorIN6hermes11JSONEmitter5StateELj8EEC2Ev(ptr noundef nonnull align 8 dereferenceable(56) %this) unnamed_addr #0 comdat align 2 {
entry:
  %this.addr = alloca ptr, align 8
  store ptr %this, ptr %this.addr, align 8
  %this1 = load ptr, ptr %this.addr, align 8
  call void @_ZN4llvh15SmallVectorImplIN6hermes11JSONEmitter5StateEEC2Ej(ptr noundef nonnull align 8 dereferenceable(16) %this1, i32 noundef 8)
  ret void
}

; Function Attrs: mustprogress nounwind uwtable
define linkonce_odr hidden void @_ZN6hermes11JSONEmitterD2Ev(ptr noundef nonnull align 8 dereferenceable(72) %this) unnamed_addr #0 comdat align 2 {
entry:
  %this.addr = alloca ptr, align 8
  store ptr %this, ptr %this.addr, align 8
  %this1 = load ptr, ptr %this.addr, align 8
  %states_ = getelementptr inbounds %"class.hermes::JSONEmitter", ptr %this1, i32 0, i32 0
  call void @_ZN4llvh11SmallVectorIN6hermes11JSONEmitter5StateELj8EED2Ev(ptr noundef nonnull align 8 dereferenceable(56) %states_) #7
  ret void
}

; Function Attrs: mustprogress nounwind uwtable
define internal void @_ZN6hermes12_GLOBAL__N_116ESTreeJSONDumperD2Ev(ptr noundef nonnull align 8 dereferenceable(72) %this) unnamed_addr #0 align 2 {
entry:
  %this.addr = alloca ptr, align 8
  store ptr %this, ptr %this.addr, align 8
  %this1 = load ptr, ptr %this.addr, align 8
  %ignoredEmptyFields_ = getelementptr inbounds %"class.hermes::(anonymous namespace)::ESTreeJSONDumper", ptr %this1, i32 0, i32 6
  call void @_ZN4llvh9StringMapINS_9StringSetINS_15MallocAllocatorEEES2_ED2Ev(ptr noundef nonnull align 8 dereferenceable(25) %ignoredEmptyFields_) #7
  ret void
}

; Function Attrs: mustprogress nounwind uwtable
define internal void @_ZN6hermes12_GLOBAL__N_116ESTreeJSONDumper4doItEPNS_6ESTree4NodeE(ptr noundef nonnull align 8 dereferenceable(72) %this, ptr noundef %rootNode) #0 align 2 {
entry:
  %this.addr = alloca ptr, align 8
  %rootNode.addr = alloca ptr, align 8
  store ptr %this, ptr %this.addr, align 8
  store ptr %rootNode, ptr %rootNode.addr, align 8
  %this1 = load ptr, ptr %this.addr, align 8
  %0 = load ptr, ptr %rootNode.addr, align 8
  call void @_ZN6hermes12_GLOBAL__N_116ESTreeJSONDumper8dumpNodeEPNS_6ESTree4NodeE(ptr noundef nonnull align 8 dereferenceable(72) %this1, ptr noundef %0)
  ret void
}

; Function Attrs: mustprogress nounwind uwtable
define linkonce_odr hidden void @_ZN6hermes11JSONEmitterC2ERN4llvh11raw_ostreamEb(ptr noundef nonnull align 8 dereferenceable(72) %this, ptr noundef nonnull align 8 dereferenceable(36) %OS, i1 noundef zeroext %pretty) unnamed_addr #0 comdat align 2 {
entry:
  %this.addr = alloca ptr, align 8
  %OS.addr = alloca ptr, align 8
  %pretty.addr = alloca i8, align 1
  store ptr %this, ptr %this.addr, align 8
  store ptr %OS, ptr %OS.addr, align 8
  %frombool = zext i1 %pretty to i8
  store i8 %frombool, ptr %pretty.addr, align 1
  %this1 = load ptr, ptr %this.addr, align 8
  %states_ = getelementptr inbounds %"class.hermes::JSONEmitter", ptr %this1, i32 0, i32 0
  call void @_ZN4llvh11SmallVectorIN6hermes11JSONEmitter5StateELj8EEC2Ev(ptr noundef nonnull align 8 dereferenceable(56) %states_)
  %OS2 = getelementptr inbounds %"class.hermes::JSONEmitter", ptr %this1, i32 0, i32 1
  %0 = load ptr, ptr %OS.addr, align 8
  store ptr %0, ptr %OS2, align 8
  %pretty_ = getelementptr inbounds %"class.hermes::JSONEmitter", ptr %this1, i32 0, i32 2
  %1 = load i8, ptr %pretty.addr, align 1
  %tobool = trunc i8 %1 to i1
  %frombool3 = zext i1 %tobool to i8
  store i8 %frombool3, ptr %pretty_, align 8
  %indent_ = getelementptr inbounds %"class.hermes::JSONEmitter", ptr %this1, i32 0, i32 3
  store i32 0, ptr %indent_, align 4
  ret void
}

; Function Attrs: mustprogress nounwind uwtable
define hidden void @_ZN6hermes14dumpESTreeJSONERN4llvh11raw_ostreamEPNS_6ESTree4NodeEbNS_14ESTreeDumpModeE(ptr noundef nonnull align 8 dereferenceable(36) %os, ptr noundef %rootNode, i1 noundef zeroext %pretty, i32 noundef %mode) #0 {
entry:
  %os.addr = alloca ptr, align 8
  %rootNode.addr = alloca ptr, align 8
  %pretty.addr = alloca i8, align 1
  %mode.addr = alloca i32, align 4
  %json = alloca %"class.hermes::JSONEmitter", align 8
  %ref.tmp = alloca %"class.hermes::(anonymous namespace)::ESTreeJSONDumper", align 8
  store ptr %os, ptr %os.addr, align 8
  store ptr %rootNode, ptr %rootNode.addr, align 8
  %frombool = zext i1 %pretty to i8
  store i8 %frombool, ptr %pretty.addr, align 1
  store i32 %mode, ptr %mode.addr, align 4
  %0 = load ptr, ptr %os.addr, align 8
  %1 = load i8, ptr %pretty.addr, align 1
  %tobool = trunc i8 %1 to i1
  call void @_ZN6hermes11JSONEmitterC2ERN4llvh11raw_ostreamEb(ptr noundef nonnull align 8 dereferenceable(72) %json, ptr noundef nonnull align 8 dereferenceable(36) %0, i1 noundef zeroext %tobool)
  %2 = load i32, ptr %mode.addr, align 4
  call void @_ZN6hermes12_GLOBAL__N_116ESTreeJSONDumperC2ERNS_11JSONEmitterEPNS_18SourceErrorManagerENS_14ESTreeDumpModeENS_16LocationDumpModeENS_13ESTreeRawPropEPKN4llvh8DenseSetINS_6ESTree8NodeKindENSB_12NodeKindInfoEEE(ptr noundef nonnull align 8 dereferenceable(72) %ref.tmp, ptr noundef nonnull align 8 dereferenceable(72) %json, ptr noundef null, i32 noundef %2, i32 noundef 0, i32 noundef 1, ptr noundef null)
  %3 = load ptr, ptr %rootNode.addr, align 8
  call void @_ZN6hermes12_GLOBAL__N_116ESTreeJSONDumper4doItEPNS_6ESTree4NodeE(ptr noundef nonnull align 8 dereferenceable(72) %ref.tmp, ptr noundef %3)
  call void @_ZN6hermes12_GLOBAL__N_116ESTreeJSONDumperD2Ev(ptr noundef nonnull align 8 dereferenceable(72) %ref.tmp) #7
  call void @_ZN6hermes11JSONEmitter8endJSONLEv(ptr noundef nonnull align 8 dereferenceable(72) %json)
  call void @_ZN6hermes11JSONEmitterD2Ev(ptr noundef nonnull align 8 dereferenceable(72) %json) #7
  ret void
}